; ModuleID = '41/282.cpp'
source_filename = "41/282.cpp"
target datalayout = "e-m:e-p270:32:32-p271:32:32-p272:64:64-i64:64-f80:128-n8:16:32:64-S128"
target triple = "x86_64-pc-linux-gnu"

%"class.std::ios_base::Init" = type { i8 }
%"class.std::basic_ostream" = type { i32 (...)**, %"class.std::basic_ios" }
%"class.std::basic_ios" = type { %"class.std::ios_base", %"class.std::basic_ostream"*, i8, i8, %"class.std::basic_streambuf"*, %"class.std::ctype"*, %"class.std::num_put"*, %"class.std::num_get"* }
%"class.std::ios_base" = type { i32 (...)**, i64, i64, i32, i32, i32, %"struct.std::ios_base::_Callback_list"*, %"struct.std::ios_base::_Words", [8 x %"struct.std::ios_base::_Words"], i32, %"struct.std::ios_base::_Words"*, %"class.std::locale" }
%"struct.std::ios_base::_Callback_list" = type { %"struct.std::ios_base::_Callback_list"*, void (i32, %"class.std::ios_base"*, i32)*, i32, i32 }
%"struct.std::ios_base::_Words" = type { i8*, i64 }
%"class.std::locale" = type { %"class.std::locale::_Impl"* }
%"class.std::locale::_Impl" = type { i32, %"class.std::locale::facet"**, i64, %"class.std::locale::facet"**, i8** }
%"class.std::locale::facet" = type <{ i32 (...)**, i32, [4 x i8] }>
%"class.std::basic_streambuf" = type { i32 (...)**, i8*, i8*, i8*, i8*, i8*, i8*, %"class.std::locale" }
%"class.std::ctype" = type <{ %"class.std::locale::facet.base", [4 x i8], %struct.__locale_struct*, i8, [7 x i8], i32*, i32*, i16*, i8, [256 x i8], [256 x i8], i8, [6 x i8] }>
%"class.std::locale::facet.base" = type <{ i32 (...)**, i32 }>
%struct.__locale_struct = type { [13 x %struct.__locale_data*], i16*, i32*, i32*, [13 x i8*] }
%struct.__locale_data = type opaque
%"class.std::num_put" = type { %"class.std::locale::facet.base", [4 x i8] }
%"class.std::num_get" = type { %"class.std::locale::facet.base", [4 x i8] }

@_ZStL8__ioinit = internal global %"class.std::ios_base::Init" zeroinitializer, align 1
@__dso_handle = external hidden global i8
@_ZSt4cout = external dso_local global %"class.std::basic_ostream", align 8
@.str = private unnamed_addr constant [2 x i8] c" \00", align 1
@llvm.global_ctors = appending global [1 x { i32, void ()*, i8* }] [{ i32, void ()*, i8* } { i32 65535, void ()* @_GLOBAL__sub_I_282.cpp, i8* null }]

; Function Attrs: noinline uwtable
define internal void @__cxx_global_var_init() #0 section ".text.startup" {
  call void @_ZNSt8ios_base4InitC1Ev(%"class.std::ios_base::Init"* @_ZStL8__ioinit)
  %1 = call i32 @__cxa_atexit(void (i8*)* bitcast (void (%"class.std::ios_base::Init"*)* @_ZNSt8ios_base4InitD1Ev to void (i8*)*), i8* getelementptr inbounds (%"class.std::ios_base::Init", %"class.std::ios_base::Init"* @_ZStL8__ioinit, i32 0, i32 0), i8* @__dso_handle) #3
  ret void
}

declare dso_local void @_ZNSt8ios_base4InitC1Ev(%"class.std::ios_base::Init"*) unnamed_addr #1

; Function Attrs: nounwind
declare dso_local void @_ZNSt8ios_base4InitD1Ev(%"class.std::ios_base::Init"*) unnamed_addr #2

; Function Attrs: nounwind
declare dso_local i32 @__cxa_atexit(void (i8*)*, i8*, i8*) #3

; Function Attrs: noinline norecurse uwtable
define dso_local i32 @main() #4 {
  %1 = alloca i32, align 4
  %2 = alloca i32, align 4
  %3 = alloca i32, align 4
  %4 = alloca i32, align 4
  %5 = alloca i32, align 4
  %6 = alloca i32, align 4
  store i32 0, i32* %1, align 4
  store i32 1, i32* %2, align 4
  br label %7

7:                                                ; preds = %156, %0
  %8 = load i32, i32* %2, align 4
  %9 = icmp slt i32 %8, 6
  br i1 %9, label %10, label %159

10:                                               ; preds = %7
  store i32 1, i32* %3, align 4
  br label %11

11:                                               ; preds = %152, %10
  %12 = load i32, i32* %3, align 4
  %13 = icmp slt i32 %12, 6
  br i1 %13, label %14, label %155

14:                                               ; preds = %11
  %15 = load i32, i32* %3, align 4
  %16 = load i32, i32* %2, align 4
  %17 = icmp ne i32 %15, %16
  br i1 %17, label %18, label %151

18:                                               ; preds = %14
  store i32 1, i32* %4, align 4
  br label %19

19:                                               ; preds = %147, %18
  %20 = load i32, i32* %4, align 4
  %21 = icmp slt i32 %20, 6
  br i1 %21, label %22, label %150

22:                                               ; preds = %19
  %23 = load i32, i32* %4, align 4
  %24 = load i32, i32* %2, align 4
  %25 = icmp ne i32 %23, %24
  br i1 %25, label %26, label %146

26:                                               ; preds = %22
  %27 = load i32, i32* %4, align 4
  %28 = load i32, i32* %3, align 4
  %29 = icmp ne i32 %27, %28
  br i1 %29, label %30, label %146

30:                                               ; preds = %26
  store i32 1, i32* %5, align 4
  br label %31

31:                                               ; preds = %142, %30
  %32 = load i32, i32* %5, align 4
  %33 = icmp slt i32 %32, 6
  br i1 %33, label %34, label %145

34:                                               ; preds = %31
  %35 = load i32, i32* %5, align 4
  %36 = load i32, i32* %2, align 4
  %37 = icmp ne i32 %35, %36
  br i1 %37, label %38, label %141

38:                                               ; preds = %34
  %39 = load i32, i32* %5, align 4
  %40 = load i32, i32* %3, align 4
  %41 = icmp ne i32 %39, %40
  br i1 %41, label %42, label %141

42:                                               ; preds = %38
  %43 = load i32, i32* %5, align 4
  %44 = load i32, i32* %4, align 4
  %45 = icmp ne i32 %43, %44
  br i1 %45, label %46, label %141

46:                                               ; preds = %42
  %47 = load i32, i32* %2, align 4
  %48 = sub nsw i32 15, %47
  %49 = load i32, i32* %3, align 4
  %50 = sub nsw i32 %48, %49
  %51 = load i32, i32* %4, align 4
  %52 = sub nsw i32 %50, %51
  %53 = load i32, i32* %5, align 4
  %54 = sub nsw i32 %52, %53
  store i32 %54, i32* %6, align 4
  %55 = load i32, i32* %6, align 4
  %56 = icmp ne i32 %55, 2
  br i1 %56, label %57, label %140

57:                                               ; preds = %46
  %58 = load i32, i32* %6, align 4
  %59 = icmp ne i32 %58, 3
  br i1 %59, label %60, label %140

60:                                               ; preds = %57
  %61 = load i32, i32* %6, align 4
  %62 = icmp eq i32 %61, 1
  %63 = zext i1 %62 to i32
  %64 = load i32, i32* %2, align 4
  %65 = icmp ne i32 %64, 1
  %66 = zext i1 %65 to i32
  %67 = add nsw i32 %63, %66
  %68 = load i32, i32* %2, align 4
  %69 = icmp ne i32 %68, 2
  %70 = zext i1 %69 to i32
  %71 = add nsw i32 %67, %70
  %72 = icmp eq i32 %71, 2
  br i1 %72, label %73, label %140

73:                                               ; preds = %60
  %74 = load i32, i32* %3, align 4
  %75 = icmp eq i32 %74, 2
  %76 = zext i1 %75 to i32
  %77 = load i32, i32* %3, align 4
  %78 = icmp ne i32 %77, 1
  %79 = zext i1 %78 to i32
  %80 = add nsw i32 %76, %79
  %81 = load i32, i32* %3, align 4
  %82 = icmp ne i32 %81, 2
  %83 = zext i1 %82 to i32
  %84 = add nsw i32 %80, %83
  %85 = icmp eq i32 %84, 2
  br i1 %85, label %86, label %140

86:                                               ; preds = %73
  %87 = load i32, i32* %2, align 4
  %88 = icmp eq i32 %87, 5
  %89 = zext i1 %88 to i32
  %90 = load i32, i32* %4, align 4
  %91 = icmp ne i32 %90, 1
  %92 = zext i1 %91 to i32
  %93 = add nsw i32 %89, %92
  %94 = load i32, i32* %4, align 4
  %95 = icmp ne i32 %94, 2
  %96 = zext i1 %95 to i32
  %97 = add nsw i32 %93, %96
  %98 = icmp eq i32 %97, 2
  br i1 %98, label %99, label %140

99:                                               ; preds = %86
  %100 = load i32, i32* %4, align 4
  %101 = icmp ne i32 %100, 1
  %102 = zext i1 %101 to i32
  %103 = load i32, i32* %5, align 4
  %104 = icmp ne i32 %103, 1
  %105 = zext i1 %104 to i32
  %106 = add nsw i32 %102, %105
  %107 = load i32, i32* %5, align 4
  %108 = icmp ne i32 %107, 2
  %109 = zext i1 %108 to i32
  %110 = add nsw i32 %106, %109
  %111 = icmp eq i32 %110, 2
  br i1 %111, label %112, label %140

112:                                              ; preds = %99
  %113 = load i32, i32* %5, align 4
  %114 = icmp eq i32 %113, 1
  %115 = zext i1 %114 to i32
  %116 = load i32, i32* %6, align 4
  %117 = icmp ne i32 %116, 1
  %118 = zext i1 %117 to i32
  %119 = add nsw i32 %115, %118
  %120 = load i32, i32* %6, align 4
  %121 = icmp ne i32 %120, 2
  %122 = zext i1 %121 to i32
  %123 = add nsw i32 %119, %122
  %124 = icmp eq i32 %123, 2
  br i1 %124, label %125, label %140

125:                                              ; preds = %112
  %126 = load i32, i32* %2, align 4
  %127 = call dereferenceable(272) %"class.std::basic_ostream"* @_ZNSolsEi(%"class.std::basic_ostream"* @_ZSt4cout, i32 %126)
  %128 = call dereferenceable(272) %"class.std::basic_ostream"* @_ZStlsISt11char_traitsIcEERSt13basic_ostreamIcT_ES5_PKc(%"class.std::basic_ostream"* dereferenceable(272) %127, i8* getelementptr inbounds ([2 x i8], [2 x i8]* @.str, i64 0, i64 0))
  %129 = load i32, i32* %3, align 4
  %130 = call dereferenceable(272) %"class.std::basic_ostream"* @_ZNSolsEi(%"class.std::basic_ostream"* %128, i32 %129)
  %131 = call dereferenceable(272) %"class.std::basic_ostream"* @_ZStlsISt11char_traitsIcEERSt13basic_ostreamIcT_ES5_PKc(%"class.std::basic_ostream"* dereferenceable(272) %130, i8* getelementptr inbounds ([2 x i8], [2 x i8]* @.str, i64 0, i64 0))
  %132 = load i32, i32* %4, align 4
  %133 = call dereferenceable(272) %"class.std::basic_ostream"* @_ZNSolsEi(%"class.std::basic_ostream"* %131, i32 %132)
  %134 = call dereferenceable(272) %"class.std::basic_ostream"* @_ZStlsISt11char_traitsIcEERSt13basic_ostreamIcT_ES5_PKc(%"class.std::basic_ostream"* dereferenceable(272) %133, i8* getelementptr inbounds ([2 x i8], [2 x i8]* @.str, i64 0, i64 0))
  %135 = load i32, i32* %5, align 4
  %136 = call dereferenceable(272) %"class.std::basic_ostream"* @_ZNSolsEi(%"class.std::basic_ostream"* %134, i32 %135)
  %137 = call dereferenceable(272) %"class.std::basic_ostream"* @_ZStlsISt11char_traitsIcEERSt13basic_ostreamIcT_ES5_PKc(%"class.std::basic_ostream"* dereferenceable(272) %136, i8* getelementptr inbounds ([2 x i8], [2 x i8]* @.str, i64 0, i64 0))
  %138 = load i32, i32* %6, align 4
  %139 = call dereferenceable(272) %"class.std::basic_ostream"* @_ZNSolsEi(%"class.std::basic_ostream"* %137, i32 %138)
  br label %140

140:                                              ; preds = %125, %112, %99, %86, %73, %60, %57, %46
  br label %141

141:                                              ; preds = %140, %42, %38, %34
  br label %142

142:                                              ; preds = %141
  %143 = load i32, i32* %5, align 4
  %144 = add nsw i32 %143, 1
  store i32 %144, i32* %5, align 4
  br label %31

145:                                              ; preds = %31
  br label %146

146:                                              ; preds = %145, %26, %22
  br label %147

147:                                              ; preds = %146
  %148 = load i32, i32* %4, align 4
  %149 = add nsw i32 %148, 1
  store i32 %149, i32* %4, align 4
  br label %19

150:                                              ; preds = %19
  br label %151

151:                                              ; preds = %150, %14
  br label %152

152:                                              ; preds = %151
  %153 = load i32, i32* %3, align 4
  %154 = add nsw i32 %153, 1
  store i32 %154, i32* %3, align 4
  br label %11

155:                                              ; preds = %11
  br label %156

156:                                              ; preds = %155
  %157 = load i32, i32* %2, align 4
  %158 = add nsw i32 %157, 1
  store i32 %158, i32* %2, align 4
  br label %7

159:                                              ; preds = %7
  ret i32 0
}

declare dso_local dereferenceable(272) %"class.std::basic_ostream"* @_ZStlsISt11char_traitsIcEERSt13basic_ostreamIcT_ES5_PKc(%"class.std::basic_ostream"* dereferenceable(272), i8*) #1

declare dso_local dereferenceable(272) %"class.std::basic_ostream"* @_ZNSolsEi(%"class.std::basic_ostream"*, i32) #1

; Function Attrs: noinline uwtable
define internal void @_GLOBAL__sub_I_282.cpp() #0 section ".text.startup" {
  call void @__cxx_global_var_init()
  ret void
}


!llvm.module.flags = !{!0}
!llvm.ident = !{!1}

!0 = !{i32 1, !"wchar_size", i32 4}
!1 = !{!"clang version 10.0.0-4ubuntu1 "}
